target datalayout = "e-m:e-p270:32:32-p271:32:32-p272:64:64-i64:64-i128:128-f80:128-n8:16:32:64-S128"
target triple = "x86_64-pc-linux-gnu"

%"class.cv::Size_" = type { i32, i32 }

; Function Attrs: alwaysinline mustprogress nounwind uwtable
define internal noundef i32 @_ZL14_mm_cvtsd_si32Dv2_d(<2 x double> noundef %0) #12 {
  %2 = alloca <2 x double>, align 16
  store <2 x double> %0, ptr %2, align 16, !tbaa !73
  %3 = load <2 x double>, ptr %2, align 16, !tbaa !73
  %4 = call i32 @llvm.x86.sse2.cvtsd2si(<2 x double> %3)
  ret i32 %4
}

; Function Attrs: alwaysinline mustprogress nounwind uwtable
define internal noundef <2 x double> @_ZL10_mm_set_sdd(double noundef %0) #12 {
  %2 = alloca double, align 8
  %3 = alloca <2 x double>, align 16
  store double %0, ptr %2, align 8, !tbaa !16
  %4 = load double, ptr %2, align 8, !tbaa !16
  %5 = insertelement <2 x double> poison, double %4, i32 0
  %6 = insertelement <2 x double> %5, double 0.000000e+00, i32 1
  store <2 x double> %6, ptr %3, align 16, !tbaa !73
  %7 = load <2 x double>, ptr %3, align 16, !tbaa !73
  ret <2 x double> %7
}

; Function Attrs: inlinehint mustprogress uwtable
define internal noundef i32 @_ZL7cvRoundd(double noundef %0) #11 {
  %2 = alloca double, align 8
  %3 = alloca <2 x double>, align 16
  store double %0, ptr %2, align 8, !tbaa !16
  call void @llvm.lifetime.start.p0(i64 16, ptr %3) #17
  %4 = load double, ptr %2, align 8, !tbaa !16
  %5 = call noundef <2 x double> @_ZL10_mm_set_sdd(double noundef %4)
  store <2 x double> %5, ptr %3, align 16, !tbaa !73
  %6 = load <2 x double>, ptr %3, align 16, !tbaa !73
  %7 = call noundef i32 @_ZL14_mm_cvtsd_si32Dv2_d(<2 x double> noundef %6)
  call void @llvm.lifetime.end.p0(i64 16, ptr %3) #17
  ret i32 %7
}

; Function Attrs: inlinehint mustprogress uwtable
define internal noundef i32 @_ZN2cvL13saturate_castIiEET_d(double noundef %0) #5 {
  %2 = alloca double, align 8
  store double %0, ptr %2, align 8, !tbaa !16
  %3 = load double, ptr %2, align 8, !tbaa !16
  %4 = call noundef i32 @_ZL7cvRoundd(double noundef %3)
  ret i32 %4
}

; Function Attrs: inlinehint mustprogress uwtable
define linkonce_odr hidden void @_ZN2cv12cpu_baseline7cvt_64fIdiEEvPKT_mPT0_mNS_5Size_IiEEdd(ptr noundef %0, i64 noundef %1, ptr noundef %2, i64 noundef %3, i64 %4, double noundef %5, double noundef %6) #5 comdat {
  %8 = alloca %"class.cv::Size_", align 4
  %9 = alloca ptr, align 8
  %10 = alloca i64, align 8
  %11 = alloca ptr, align 8
  %12 = alloca i64, align 8
  %13 = alloca double, align 8
  %14 = alloca double, align 8
  %15 = alloca i32, align 4
  %16 = alloca i32, align 4
  store i64 %4, ptr %8, align 4
  store ptr %0, ptr %9, align 8, !tbaa !13
  store i64 %1, ptr %10, align 8, !tbaa !11
  store ptr %2, ptr %11, align 8, !tbaa !20
  store i64 %3, ptr %12, align 8, !tbaa !11
  store double %5, ptr %13, align 8, !tbaa !16
  store double %6, ptr %14, align 8, !tbaa !16
  %17 = load i64, ptr %10, align 8, !tbaa !11
  %18 = udiv i64 %17, 8
  store i64 %18, ptr %10, align 8, !tbaa !11
  %19 = load i64, ptr %12, align 8, !tbaa !11
  %20 = udiv i64 %19, 4
  store i64 %20, ptr %12, align 8, !tbaa !11
  call void @llvm.lifetime.start.p0(i64 4, ptr %15) #17
  store i32 0, ptr %15, align 4, !tbaa !3
  br label %21

21:                                               ; preds = %51, %7
  %22 = load i32, ptr %15, align 4, !tbaa !3
  %23 = getelementptr inbounds nuw %"class.cv::Size_", ptr %8, i32 0, i32 1
  %24 = load i32, ptr %23, align 4, !tbaa !70
  %25 = icmp slt i32 %22, %24
  br i1 %25, label %27, label %26

26:                                               ; preds = %21
  call void @llvm.lifetime.end.p0(i64 4, ptr %15) #17
  br label %60

27:                                               ; preds = %21
  call void @llvm.lifetime.start.p0(i64 4, ptr %16) #17
  store i32 0, ptr %16, align 4, !tbaa !3
  br label %28

28:                                               ; preds = %47, %27
  %29 = load i32, ptr %16, align 4, !tbaa !3
  %30 = getelementptr inbounds nuw %"class.cv::Size_", ptr %8, i32 0, i32 0
  %31 = load i32, ptr %30, align 4, !tbaa !69
  %32 = icmp slt i32 %29, %31
  br i1 %32, label %33, label %50

33:                                               ; preds = %28
  %34 = load ptr, ptr %9, align 8, !tbaa !13
  %35 = load i32, ptr %16, align 4, !tbaa !3
  %36 = sext i32 %35 to i64
  %37 = getelementptr inbounds double, ptr %34, i64 %36
  %38 = load double, ptr %37, align 8, !tbaa !16
  %39 = load double, ptr %13, align 8, !tbaa !16
  %40 = load double, ptr %14, align 8, !tbaa !16
  %41 = call double @llvm.fmuladd.f64(double %38, double %39, double %40)
  %42 = call noundef i32 @_ZN2cvL13saturate_castIiEET_d(double noundef %41)
  %43 = load ptr, ptr %11, align 8, !tbaa !20
  %44 = load i32, ptr %16, align 4, !tbaa !3
  %45 = sext i32 %44 to i64
  %46 = getelementptr inbounds i32, ptr %43, i64 %45
  store i32 %42, ptr %46, align 4, !tbaa !3
  br label %47

47:                                               ; preds = %33
  %48 = load i32, ptr %16, align 4, !tbaa !3
  %49 = add nsw i32 %48, 1
  store i32 %49, ptr %16, align 4, !tbaa !3
  br label %28, !llvm.loop !168

50:                                               ; preds = %28
  call void @llvm.lifetime.end.p0(i64 4, ptr %16) #17
  br label %51

51:                                               ; preds = %50
  %52 = load i32, ptr %15, align 4, !tbaa !3
  %53 = add nsw i32 %52, 1
  store i32 %53, ptr %15, align 4, !tbaa !3
  %54 = load i64, ptr %10, align 8, !tbaa !11
  %55 = load ptr, ptr %9, align 8, !tbaa !13
  %56 = getelementptr inbounds nuw double, ptr %55, i64 %54
  store ptr %56, ptr %9, align 8, !tbaa !13
  %57 = load i64, ptr %12, align 8, !tbaa !11
  %58 = load ptr, ptr %11, align 8, !tbaa !20
  %59 = getelementptr inbounds nuw i32, ptr %58, i64 %57
  store ptr %59, ptr %11, align 8, !tbaa !20
  br label %21, !llvm.loop !169

60:                                               ; preds = %26
  ret void
}

; Function Attrs: mustprogress uwtable
define internal void @_ZN2cv12cpu_baselineL14cvtScale64f32sEPKhmS2_mPhmNS_5Size_IiEEPv(ptr noundef %0, i64 noundef %1, ptr noundef %2, i64 noundef %3, ptr noundef %4, i64 noundef %5, i64 %6, ptr noundef %7) #1 {
  %9 = alloca %"class.cv::Size_", align 4
  %10 = alloca ptr, align 8
  %11 = alloca i64, align 8
  %12 = alloca ptr, align 8
  %13 = alloca i64, align 8
  %14 = alloca ptr, align 8
  %15 = alloca i64, align 8
  %16 = alloca ptr, align 8
  %17 = alloca ptr, align 8
  %18 = alloca ptr, align 8
  %19 = alloca ptr, align 8
  %20 = alloca %"class.cv::Size_", align 4
  store i64 %6, ptr %9, align 4
  store ptr %0, ptr %10, align 8, !tbaa !9
  store i64 %1, ptr %11, align 8, !tbaa !11
  store ptr %2, ptr %12, align 8, !tbaa !9
  store i64 %3, ptr %13, align 8, !tbaa !11
  store ptr %4, ptr %14, align 8, !tbaa !9
  store i64 %5, ptr %15, align 8, !tbaa !11
  store ptr %7, ptr %16, align 8, !tbaa !7
  call void @llvm.lifetime.start.p0(i64 8, ptr %17) #17
  %21 = load ptr, ptr %10, align 8, !tbaa !9
  store ptr %21, ptr %17, align 8, !tbaa !13
  call void @llvm.lifetime.start.p0(i64 8, ptr %18) #17
  %22 = load ptr, ptr %14, align 8, !tbaa !9
  store ptr %22, ptr %18, align 8, !tbaa !20
  call void @llvm.lifetime.start.p0(i64 8, ptr %19) #17
  %23 = load ptr, ptr %16, align 8, !tbaa !7
  store ptr %23, ptr %19, align 8, !tbaa !13
  %24 = load ptr, ptr %17, align 8, !tbaa !13
  %25 = load i64, ptr %11, align 8, !tbaa !11
  %26 = load ptr, ptr %18, align 8, !tbaa !20
  %27 = load i64, ptr %15, align 8, !tbaa !11
  call void @llvm.memcpy.p0.p0.i64(ptr align 4 %20, ptr align 4 %9, i64 8, i1 false), !tbaa.struct !15
  %28 = load ptr, ptr %19, align 8, !tbaa !13
  %29 = getelementptr inbounds double, ptr %28, i64 0
  %30 = load double, ptr %29, align 8, !tbaa !16
  %31 = load ptr, ptr %19, align 8, !tbaa !13
  %32 = getelementptr inbounds double, ptr %31, i64 1
  %33 = load double, ptr %32, align 8, !tbaa !16
  %34 = load i64, ptr %20, align 4
  call void @_ZN2cv12cpu_baseline7cvt_64fIdiEEvPKT_mPT0_mNS_5Size_IiEEdd(ptr noundef %24, i64 noundef %25, ptr noundef %26, i64 noundef %27, i64 %34, double noundef %30, double noundef %33)
  call void @llvm.lifetime.end.p0(i64 8, ptr %19) #17
  call void @llvm.lifetime.end.p0(i64 8, ptr %18) #17
  call void @llvm.lifetime.end.p0(i64 8, ptr %17) #17
  ret void
}